((S'Afganistan'
p0
S'Afghanistan'
p1
tp2
(S'Albania'
p3
g3
tp4
(S'Algeria'
p5
g5
tp6
(S'American Samoa'
p7
g7
tp8
(S'Andorra'
p9
g9
tp10
(S'Angola'
p11
g11
tp12
(S'Anguilla'
p13
g13
tp14
(S'Antigua &amp; Barbuda'
p15
g15
tp16
(S'Argentina'
p17
g17
tp18
(S'Armenia'
p19
g19
tp20
(S'Aruba'
p21
g21
tp22
(S'Australia'
p23
g23
tp24
(S'Austria'
p25
g25
tp26
(S'Azerbaijan'
p27
g27
tp28
(S'Bahamas'
p29
g29
tp30
(S'Bahrain'
p31
g31
tp32
(S'Bangladesh'
p33
g33
tp34
(S'Barbados'
p35
g35
tp36
(S'Belarus'
p37
g37
tp38
(S'Belgium'
p39
g39
tp40
(S'Belize'
p41
g41
tp42
(S'Benin'
p43
g43
tp44
(S'Bermuda'
p45
g45
tp46
(S'Bhutan'
p47
g47
tp48
(S'Bolivia'
p49
g49
tp50
(S'Bonaire'
p51
g51
tp52
(S'Bosnia &amp; Herzegovina'
p53
g53
tp54
(S'Botswana'
p55
g55
tp56
(S'Brazil'
p57
g57
tp58
(S'British Indian Ocean Ter'
p59
g59
tp60
(S'Brunei'
p61
g61
tp62
(S'Bulgaria'
p63
g63
tp64
(S'Burkina Faso'
p65
g65
tp66
(S'Burundi'
p67
g67
tp68
(S'Cambodia'
p69
g69
tp70
(S'Cameroon'
p71
g71
tp72
(S'Canada'
p73
g73
tp74
(S'Canary Islands'
p75
g75
tp76
(S'Cape Verde'
p77
g77
tp78
(S'Cayman Islands'
p79
g79
tp80
(S'Central African Republic'
p81
g81
tp82
(S'Chad'
p83
g83
tp84
(S'Channel Islands'
p85
g85
tp86
(S'Chile'
p87
g87
tp88
(S'China'
p89
g89
tp90
(S'Christmas Island'
p91
g91
tp92
(S'Cocos Island'
p93
g93
tp94
(S'Colombia'
p95
g95
tp96
(S'Comoros'
p97
g97
tp98
(S'Congo'
p99
g99
tp100
(S'Cook Islands'
p101
g101
tp102
(S'Costa Rica'
p103
g103
tp104
(S'Cote DIvoire'
p105
S"Cote D'Ivoire"
p106
tp107
(S'Croatia'
p108
g108
tp109
(S'Cuba'
p110
g110
tp111
(S'Curaco'
p112
S'Curacao'
p113
tp114
(S'Cyprus'
p115
g115
tp116
(S'Czech Republic'
p117
g117
tp118
(S'Denmark'
p119
g119
tp120
(S'Djibouti'
p121
g121
tp122
(S'Dominica'
p123
g123
tp124
(S'Dominican Republic'
p125
g125
tp126
(S'East Timor'
p127
g127
tp128
(S'Ecuador'
p129
g129
tp130
(S'Egypt'
p131
g131
tp132
(S'El Salvador'
p133
g133
tp134
(S'Equatorial Guinea'
p135
g135
tp136
(S'Eritrea'
p137
g137
tp138
(S'Estonia'
p139
g139
tp140
(S'Ethiopia'
p141
g141
tp142
(S'Falkland Islands'
p143
g143
tp144
(S'Faroe Islands'
p145
g145
tp146
(S'Fiji'
p147
g147
tp148
(S'Finland'
p149
g149
tp150
(S'France'
p151
g151
tp152
(S'French Guiana'
p153
g153
tp154
(S'French Polynesia'
p155
g155
tp156
(S'French Southern Ter'
p157
g157
tp158
(S'Gabon'
p159
g159
tp160
(S'Gambia'
p161
g161
tp162
(S'Georgia'
p163
g163
tp164
(S'Germany'
p165
g165
tp166
(S'Ghana'
p167
g167
tp168
(S'Gibraltar'
p169
g169
tp170
(S'Great Britain'
p171
g171
tp172
(S'Greece'
p173
g173
tp174
(S'Greenland'
p175
g175
tp176
(S'Grenada'
p177
g177
tp178
(S'Guadeloupe'
p179
g179
tp180
(S'Guam'
p181
g181
tp182
(S'Guatemala'
p183
g183
tp184
(S'Guinea'
p185
g185
tp186
(S'Guyana'
p187
g187
tp188
(S'Haiti'
p189
g189
tp190
(S'Hawaii'
p191
g191
tp192
(S'Honduras'
p193
g193
tp194
(S'Hong Kong'
p195
g195
tp196
(S'Hungary'
p197
g197
tp198
(S'Iceland'
p199
g199
tp200
(S'India'
p201
g201
tp202
(S'Indonesia'
p203
g203
tp204
(S'Iran'
p205
g205
tp206
(S'Iraq'
p207
g207
tp208
(S'Ireland'
p209
g209
tp210
(S'Isle of Man'
p211
g211
tp212
(S'Israel'
p213
g213
tp214
(S'Italy'
p215
g215
tp216
(S'Jamaica'
p217
g217
tp218
(S'Japan'
p219
g219
tp220
(S'Jordan'
p221
g221
tp222
(S'Kazakhstan'
p223
g223
tp224
(S'Kenya'
p225
g225
tp226
(S'Kiribati'
p227
g227
tp228
(S'Korea North'
p229
g229
tp230
(S'Korea Sout'
p231
S'Korea South'
p232
tp233
(S'Kuwait'
p234
g234
tp235
(S'Kyrgyzstan'
p236
g236
tp237
(S'Laos'
p238
g238
tp239
(S'Latvia'
p240
g240
tp241
(S'Lebanon'
p242
g242
tp243
(S'Lesotho'
p244
g244
tp245
(S'Liberia'
p246
g246
tp247
(S'Libya'
p248
g248
tp249
(S'Liechtenstein'
p250
g250
tp251
(S'Lithuania'
p252
g252
tp253
(S'Luxembourg'
p254
g254
tp255
(S'Macau'
p256
g256
tp257
(S'Macedonia'
p258
g258
tp259
(S'Madagascar'
p260
g260
tp261
(S'Malaysia'
p262
g262
tp263
(S'Malawi'
p264
g264
tp265
(S'Maldives'
p266
g266
tp267
(S'Mali'
p268
g268
tp269
(S'Malta'
p270
g270
tp271
(S'Marshall Islands'
p272
g272
tp273
(S'Martinique'
p274
g274
tp275
(S'Mauritania'
p276
g276
tp277
(S'Mauritius'
p278
g278
tp279
(S'Mayotte'
p280
g280
tp281
(S'Mexico'
p282
g282
tp283
(S'Midway Islands'
p284
g284
tp285
(S'Moldova'
p286
g286
tp287
(S'Monaco'
p288
g288
tp289
(S'Mongolia'
p290
g290
tp291
(S'Montserrat'
p292
g292
tp293
(S'Morocco'
p294
g294
tp295
(S'Mozambique'
p296
g296
tp297
(S'Myanmar'
p298
g298
tp299
(S'Nambia'
p300
g300
tp301
(S'Nauru'
p302
g302
tp303
(S'Nepal'
p304
g304
tp305
(S'Netherland Antilles'
p306
g306
tp307
(S'Netherlands'
p308
S'Netherlands (Holland, Europe),'
p309
tp310
(S'Nevis'
p311
g311
tp312
(S'New Caledonia'
p313
g313
tp314
(S'New Zealand'
p315
g315
tp316
(S'Nicaragua'
p317
g317
tp318
(S'Niger'
p319
g319
tp320
(S'Nigeria'
p321
g321
tp322
(S'Niue'
p323
g323
tp324
(S'Norfolk Island'
p325
g325
tp326
(S'Norway'
p327
g327
tp328
(S'Oman'
p329
g329
tp330
(S'Pakistan'
p331
g331
tp332
(S'Palau Island'
p333
g333
tp334
(S'Palestine'
p335
g335
tp336
(S'Panama'
p337
g337
tp338
(S'Papua New Guinea'
p339
g339
tp340
(S'Paraguay'
p341
g341
tp342
(S'Peru'
p343
g343
tp344
(S'Phillipines'
p345
S'Philippines'
p346
tp347
(S'Pitcairn Island'
p348
g348
tp349
(S'Poland'
p350
g350
tp351
(S'Portugal'
p352
g352
tp353
(S'Puerto Rico'
p354
g354
tp355
(S'Qatar'
p356
g356
tp357
(S'Republic of Montenegro'
p358
g358
tp359
(S'Republic of Serbia'
p360
g360
tp361
(S'Reunion'
p362
g362
tp363
(S'Romania'
p364
g364
tp365
(S'Russia'
p366
g366
tp367
(S'Rwanda'
p368
g368
tp369
(S'St Barthelemy'
p370
g370
tp371
(S'St Eustatius'
p372
g372
tp373
(S'St Helena'
p374
g374
tp375
(S'St Kitts-Nevis'
p376
g376
tp377
(S'St Lucia'
p378
g378
tp379
(S'St Maarten'
p380
g380
tp381
(S'St Pierre &amp; Miquelon'
p382
g382
tp383
(S'St Vincent &amp; Grenadines'
p384
g384
tp385
(S'Saipan'
p386
g386
tp387
(S'Samoa'
p388
g388
tp389
(S'Samoa American'
p390
g390
tp391
(S'San Marino'
p392
g392
tp393
(S'Sao Tome &amp; Principe'
p394
g394
tp395
(S'Saudi Arabia'
p396
g396
tp397
(S'Senegal'
p398
g398
tp399
(S'Serbia'
p400
g400
tp401
(S'Seychelles'
p402
g402
tp403
(S'Sierra Leone'
p404
g404
tp405
(S'Singapore'
p406
g406
tp407
(S'Slovakia'
p408
g408
tp409
(S'Slovenia'
p410
g410
tp411
(S'Solomon Islands'
p412
g412
tp413
(S'Somalia'
p414
g414
tp415
(S'South Africa'
p416
g416
tp417
(S'Spain'
p418
g418
tp419
(S'Sri Lanka'
p420
g420
tp421
(S'Sudan'
p422
g422
tp423
(S'Suriname'
p424
g424
tp425
(S'Swaziland'
p426
g426
tp427
(S'Sweden'
p428
g428
tp429
(S'Switzerland'
p430
g430
tp431
(S'Syria'
p432
g432
tp433
(S'Tahiti'
p434
g434
tp435
(S'Taiwan'
p436
g436
tp437
(S'Tajikistan'
p438
g438
tp439
(S'Tanzania'
p440
g440
tp441
(S'Thailand'
p442
g442
tp443
(S'Togo'
p444
g444
tp445
(S'Tokelau'
p446
g446
tp447
(S'Tonga'
p448
g448
tp449
(S'Trinidad &amp; Tobago'
p450
g450
tp451
(S'Tunisia'
p452
g452
tp453
(S'Turkey'
p454
g454
tp455
(S'Turkmenistan'
p456
g456
tp457
(S'Turks &amp; Caicos Is'
p458
g458
tp459
(S'Tuvalu'
p460
g460
tp461
(S'Uganda'
p462
g462
tp463
(S'Ukraine'
p464
g464
tp465
(S'United Arab Erimates'
p466
S'United Arab Emirates'
p467
tp468
(S'United Kingdom'
p469
g469
tp470
(S'United States of America'
p471
g471
tp472
(S'Uraguay'
p473
S'Uruguay'
p474
tp475
(S'Uzbekistan'
p476
g476
tp477
(S'Vanuatu'
p478
g478
tp479
(S'Vatican City State'
p480
g480
tp481
(S'Venezuela'
p482
g482
tp483
(S'Vietnam'
p484
g484
tp485
(S'Virgin Islands (Brit),'
p486
g486
tp487
(S'Virgin Islands (USA),'
p488
g488
tp489
(S'Wake Island'
p490
g490
tp491
(S'Wallis &amp; Futana Is'
p492
g492
tp493
(S'Yemen'
p494
g494
tp495
(S'Zaire'
p496
g496
tp497
(S'Zambia'
p498
g498
tp499
(S'Zimbabwe'
p500
g500
tp501
tp502
.